target datalayout = "e-m:e-p270:32:32-p271:32:32-p272:64:64-i64:64-i128:128-f80:128-n8:16:32:64-S128"
target triple = "x86_64-pc-linux-gnu"

%struct._zval_struct = type { %union._zend_value, %union.anon, %union.anon.2 }
%union._zend_value = type { i64 }
%union.anon = type { i32 }
%union.anon.2 = type { i32 }
%struct._zend_refcounted_h = type { i32, %union.anon.3 }
%union.anon.3 = type { i32 }
%struct._spl_heap_object = type { ptr, i32, ptr, ptr, %struct._zend_object }
%struct._zend_object = type { %struct._zend_refcounted_h, i32, ptr, ptr, ptr, [1 x %struct._zval_struct] }
%struct._spl_ptr_heap = type { ptr, ptr, ptr, ptr, i32, i32, i64, i64 }
%struct._zend_object_iterator = type { %struct._zend_object, %struct._zval_struct, ptr, i64 }

@spl_ce_RuntimeException = external global ptr, align 8
@.str = private unnamed_addr constant [58 x i8] c"Heap is corrupted, heap properties are no longer ensured.\00", align 1

; Function Attrs: nounwind uwtable
define internal ptr @spl_heap_from_obj(ptr noundef %0) #0 {
  %2 = alloca ptr, align 8
  store ptr %0, ptr %2, align 8
  %3 = load ptr, ptr %2, align 8
  %4 = getelementptr inbounds i8, ptr %3, i64 -32
  ret ptr %4
}

; Function Attrs: nounwind uwtable
define internal ptr @spl_heap_it_get_current_data(ptr noundef %0) #0 {
  %2 = alloca ptr, align 8
  %3 = alloca i64, align 8
  %4 = alloca ptr, align 8
  %5 = alloca ptr, align 8
  %6 = alloca ptr, align 8
  store ptr %0, ptr %5, align 8
  %7 = load ptr, ptr %5, align 8
  %8 = getelementptr inbounds %struct._zend_object_iterator, ptr %7, i32 0, i32 1
  %9 = getelementptr inbounds %struct._zval_struct, ptr %8, i32 0, i32 0
  %10 = load ptr, ptr %9, align 8
  %11 = call ptr @spl_heap_from_obj(ptr noundef %10)
  store ptr %11, ptr %6, align 8
  %12 = load ptr, ptr %6, align 8
  %13 = getelementptr inbounds %struct._spl_heap_object, ptr %12, i32 0, i32 0
  %14 = load ptr, ptr %13, align 8
  %15 = getelementptr inbounds %struct._spl_ptr_heap, ptr %14, i32 0, i32 5
  %16 = load i32, ptr %15, align 4
  %17 = and i32 %16, 1
  %18 = icmp ne i32 %17, 0
  br i1 %18, label %19, label %22

19:                                               ; preds = %1
  %20 = load ptr, ptr @spl_ce_RuntimeException, align 8
  %21 = call ptr @zend_throw_exception(ptr noundef %20, ptr noundef @.str, i64 noundef 0)
  store ptr null, ptr %4, align 8
  br label %42

22:                                               ; preds = %1
  %23 = load ptr, ptr %6, align 8
  %24 = getelementptr inbounds %struct._spl_heap_object, ptr %23, i32 0, i32 0
  %25 = load ptr, ptr %24, align 8
  %26 = getelementptr inbounds %struct._spl_ptr_heap, ptr %25, i32 0, i32 4
  %27 = load i32, ptr %26, align 8
  %28 = icmp eq i32 %27, 0
  br i1 %28, label %29, label %30

29:                                               ; preds = %22
  store ptr null, ptr %4, align 8
  br label %42

30:                                               ; preds = %22
  %31 = load ptr, ptr %6, align 8
  %32 = getelementptr inbounds %struct._spl_heap_object, ptr %31, i32 0, i32 0
  %33 = load ptr, ptr %32, align 8
  store ptr %33, ptr %2, align 8
  store i64 0, ptr %3, align 8
  %34 = load ptr, ptr %2, align 8
  %35 = load ptr, ptr %34, align 8
  %36 = load ptr, ptr %2, align 8
  %37 = getelementptr inbounds %struct._spl_ptr_heap, ptr %36, i32 0, i32 7
  %38 = load i64, ptr %37, align 8
  %39 = load i64, ptr %3, align 8
  %40 = mul i64 %38, %39
  %41 = getelementptr inbounds i8, ptr %35, i64 %40
  store ptr %41, ptr %4, align 8
  br label %42

42:                                               ; preds = %30, %29, %19
  %43 = load ptr, ptr %4, align 8
  ret ptr %43
}