; Function Attrs: nounwind uwtable
define internal ptr @spl_heap_it_get_current_data(ptr nocapture noundef readonly %0) #0 {
  %2 = getelementptr inbounds i8, ptr %0, i64 56
  %3 = load ptr, ptr %2, align 8
  %4 = getelementptr inbounds i8, ptr %3, i64 -32
  %5 = load ptr, ptr %4, align 8
  %6 = getelementptr inbounds i8, ptr %5, i64 36
  %7 = load i32, ptr %6, align 4
  %8 = and i32 %7, 1
  %.not = icmp eq i32 %8, 0
  br i1 %.not, label %12, label %9

9:                                                ; preds = %1
  %10 = load ptr, ptr @spl_ce_RuntimeException, align 8
  %11 = tail call ptr @zend_throw_exception(ptr noundef %10, ptr noundef nonnull @.str, i64 noundef 0) #14
  br label %18

12:                                               ; preds = %1
  %13 = getelementptr inbounds i8, ptr %5, i64 32
  %14 = load i32, ptr %13, align 8
  %15 = icmp eq i32 %14, 0
  br i1 %15, label %18, label %16

16:                                               ; preds = %12
  %17 = load ptr, ptr %5, align 8
  br label %18

18:                                               ; preds = %12, %16, %9
  %.0 = phi ptr [ null, %9 ], [ %17, %16 ], [ null, %12 ]
  ret ptr %.0
}